target datalayout = "e-m:e-p270:32:32-p271:32:32-p272:64:64-i64:64-i128:128-f80:128-n8:16:32:64-S128"
target triple = "x86_64-pc-linux-gnu"

%"struct.duckdb::interval_t" = type { i32, i32, i64 }
%"struct.duckdb::timestamp_t" = type { i64 }
%"struct.duckdb::date_t" = type { i32 }
%"struct.duckdb::dtime_t" = type { i64 }

; Function Attrs: mustprogress uwtable
define void @_ZN6duckdb10NextSecondERiS0_S0_S0_S0_S0_(ptr noundef nonnull align 4 dereferenceable(4) %0, ptr noundef nonnull align 4 dereferenceable(4) %1, ptr noundef nonnull align 4 dereferenceable(4) %2, ptr noundef nonnull align 4 dereferenceable(4) %3, ptr noundef nonnull align 4 dereferenceable(4) %4, ptr noundef nonnull align 4 dereferenceable(4) %5) #0 {
  %7 = alloca ptr, align 8
  %8 = alloca ptr, align 8
  %9 = alloca ptr, align 8
  %10 = alloca ptr, align 8
  %11 = alloca ptr, align 8
  %12 = alloca ptr, align 8
  store ptr %0, ptr %7, align 8, !tbaa !108
  store ptr %1, ptr %8, align 8, !tbaa !108
  store ptr %2, ptr %9, align 8, !tbaa !108
  store ptr %3, ptr %10, align 8, !tbaa !108
  store ptr %4, ptr %11, align 8, !tbaa !108
  store ptr %5, ptr %12, align 8, !tbaa !108
  %13 = load ptr, ptr %12, align 8, !tbaa !108
  %14 = load i32, ptr %13, align 4, !tbaa !110
  %15 = add nsw i32 %14, 1
  store i32 %15, ptr %13, align 4, !tbaa !110
  %16 = load ptr, ptr %12, align 8, !tbaa !108
  %17 = load i32, ptr %16, align 4, !tbaa !110
  %18 = icmp sge i32 %17, 60
  br i1 %18, label %19, label %26

19:                                               ; preds = %6
  %20 = load ptr, ptr %7, align 8, !tbaa !108
  %21 = load ptr, ptr %8, align 8, !tbaa !108
  %22 = load ptr, ptr %9, align 8, !tbaa !108
  %23 = load ptr, ptr %10, align 8, !tbaa !108
  %24 = load ptr, ptr %11, align 8, !tbaa !108
  call void @_ZN6duckdb10NextMinuteERiS0_S0_S0_S0_(ptr noundef nonnull align 4 dereferenceable(4) %20, ptr noundef nonnull align 4 dereferenceable(4) %21, ptr noundef nonnull align 4 dereferenceable(4) %22, ptr noundef nonnull align 4 dereferenceable(4) %23, ptr noundef nonnull align 4 dereferenceable(4) %24)
  %25 = load ptr, ptr %12, align 8, !tbaa !108
  store i32 0, ptr %25, align 4, !tbaa !110
  br label %26

26:                                               ; preds = %19, %6
  ret void
}

; Function Attrs: mustprogress uwtable
define void @_ZN6duckdb10NextMinuteERiS0_S0_S0_S0_(ptr noundef nonnull align 4 dereferenceable(4) %0, ptr noundef nonnull align 4 dereferenceable(4) %1, ptr noundef nonnull align 4 dereferenceable(4) %2, ptr noundef nonnull align 4 dereferenceable(4) %3, ptr noundef nonnull align 4 dereferenceable(4) %4) #0 {
  %6 = alloca ptr, align 8
  %7 = alloca ptr, align 8
  %8 = alloca ptr, align 8
  %9 = alloca ptr, align 8
  %10 = alloca ptr, align 8
  store ptr %0, ptr %6, align 8, !tbaa !108
  store ptr %1, ptr %7, align 8, !tbaa !108
  store ptr %2, ptr %8, align 8, !tbaa !108
  store ptr %3, ptr %9, align 8, !tbaa !108
  store ptr %4, ptr %10, align 8, !tbaa !108
  %11 = load ptr, ptr %10, align 8, !tbaa !108
  %12 = load i32, ptr %11, align 4, !tbaa !110
  %13 = add nsw i32 %12, 1
  store i32 %13, ptr %11, align 4, !tbaa !110
  %14 = load ptr, ptr %10, align 8, !tbaa !108
  %15 = load i32, ptr %14, align 4, !tbaa !110
  %16 = icmp sge i32 %15, 60
  br i1 %16, label %17, label %23

17:                                               ; preds = %5
  %18 = load ptr, ptr %6, align 8, !tbaa !108
  %19 = load ptr, ptr %7, align 8, !tbaa !108
  %20 = load ptr, ptr %8, align 8, !tbaa !108
  %21 = load ptr, ptr %9, align 8, !tbaa !108
  call void @_ZN6duckdb8NextHourERiS0_S0_S0_(ptr noundef nonnull align 4 dereferenceable(4) %18, ptr noundef nonnull align 4 dereferenceable(4) %19, ptr noundef nonnull align 4 dereferenceable(4) %20, ptr noundef nonnull align 4 dereferenceable(4) %21)
  %22 = load ptr, ptr %10, align 8, !tbaa !108
  store i32 0, ptr %22, align 4, !tbaa !110
  br label %23

23:                                               ; preds = %17, %5
  ret void
}

; Function Attrs: mustprogress uwtable
define void @_ZN6duckdb8NextHourERiS0_S0_S0_(ptr noundef nonnull align 4 dereferenceable(4) %0, ptr noundef nonnull align 4 dereferenceable(4) %1, ptr noundef nonnull align 4 dereferenceable(4) %2, ptr noundef nonnull align 4 dereferenceable(4) %3) #0 {
  %5 = alloca ptr, align 8
  %6 = alloca ptr, align 8
  %7 = alloca ptr, align 8
  %8 = alloca ptr, align 8
  store ptr %0, ptr %5, align 8, !tbaa !108
  store ptr %1, ptr %6, align 8, !tbaa !108
  store ptr %2, ptr %7, align 8, !tbaa !108
  store ptr %3, ptr %8, align 8, !tbaa !108
  %9 = load ptr, ptr %8, align 8, !tbaa !108
  %10 = load i32, ptr %9, align 4, !tbaa !110
  %11 = add nsw i32 %10, 1
  store i32 %11, ptr %9, align 4, !tbaa !110
  %12 = load ptr, ptr %8, align 8, !tbaa !108
  %13 = load i32, ptr %12, align 4, !tbaa !110
  %14 = icmp sge i32 %13, 24
  br i1 %14, label %15, label %20

15:                                               ; preds = %4
  %16 = load ptr, ptr %5, align 8, !tbaa !108
  %17 = load ptr, ptr %6, align 8, !tbaa !108
  %18 = load ptr, ptr %7, align 8, !tbaa !108
  call void @_ZN6duckdb7NextDayERiS0_S0_(ptr noundef nonnull align 4 dereferenceable(4) %16, ptr noundef nonnull align 4 dereferenceable(4) %17, ptr noundef nonnull align 4 dereferenceable(4) %18)
  %19 = load ptr, ptr %8, align 8, !tbaa !108
  store i32 0, ptr %19, align 4, !tbaa !110
  br label %20

20:                                               ; preds = %15, %4
  ret void
}

; Function Attrs: mustprogress uwtable
define void @_ZN6duckdb7NextDayERiS0_S0_(ptr noundef nonnull align 4 dereferenceable(4) %0, ptr noundef nonnull align 4 dereferenceable(4) %1, ptr noundef nonnull align 4 dereferenceable(4) %2) #0 {
  %4 = alloca ptr, align 8
  %5 = alloca ptr, align 8
  %6 = alloca ptr, align 8
  store ptr %0, ptr %4, align 8, !tbaa !108
  store ptr %1, ptr %5, align 8, !tbaa !108
  store ptr %2, ptr %6, align 8, !tbaa !108
  %7 = load ptr, ptr %6, align 8, !tbaa !108
  %8 = load i32, ptr %7, align 4, !tbaa !110
  %9 = add nsw i32 %8, 1
  store i32 %9, ptr %7, align 4, !tbaa !110
  %10 = load ptr, ptr %4, align 8, !tbaa !108
  %11 = load i32, ptr %10, align 4, !tbaa !110
  %12 = load ptr, ptr %5, align 8, !tbaa !108
  %13 = load i32, ptr %12, align 4, !tbaa !110
  %14 = load ptr, ptr %6, align 8, !tbaa !108
  %15 = load i32, ptr %14, align 4, !tbaa !110
  %16 = call noundef zeroext i1 @_ZN6duckdb4Date7IsValidEiii(i32 noundef %11, i32 noundef %13, i32 noundef %15)
  br i1 %16, label %21, label %17

17:                                               ; preds = %3
  %18 = load ptr, ptr %4, align 8, !tbaa !108
  %19 = load ptr, ptr %5, align 8, !tbaa !108
  call void @_ZN6duckdb9NextMonthERiS0_(ptr noundef nonnull align 4 dereferenceable(4) %18, ptr noundef nonnull align 4 dereferenceable(4) %19)
  %20 = load ptr, ptr %6, align 8, !tbaa !108
  store i32 1, ptr %20, align 4, !tbaa !110
  br label %21

21:                                               ; preds = %17, %3
  ret void
}

; Function Attrs: mustprogress nounwind uwtable
define void @_ZN6duckdb9NextMonthERiS0_(ptr noundef nonnull align 4 dereferenceable(4) %0, ptr noundef nonnull align 4 dereferenceable(4) %1) #4 {
  %3 = alloca ptr, align 8
  %4 = alloca ptr, align 8
  store ptr %0, ptr %3, align 8, !tbaa !108
  store ptr %1, ptr %4, align 8, !tbaa !108
  %5 = load ptr, ptr %4, align 8, !tbaa !108
  %6 = load i32, ptr %5, align 4, !tbaa !110
  %7 = add nsw i32 %6, 1
  store i32 %7, ptr %5, align 4, !tbaa !110
  %8 = load ptr, ptr %4, align 8, !tbaa !108
  %9 = load i32, ptr %8, align 4, !tbaa !110
  %10 = icmp eq i32 %9, 13
  br i1 %10, label %11, label %16

11:                                               ; preds = %2
  %12 = load ptr, ptr %3, align 8, !tbaa !108
  %13 = load i32, ptr %12, align 4, !tbaa !110
  %14 = add nsw i32 %13, 1
  store i32 %14, ptr %12, align 4, !tbaa !110
  %15 = load ptr, ptr %4, align 8, !tbaa !108
  store i32 1, ptr %15, align 4, !tbaa !110
  br label %16

16:                                               ; preds = %11, %2
  ret void
}

; Function Attrs: mustprogress uwtable
define i64 @_ZN6duckdb17MakeTimestampNiceEiiiiiiiNS_10interval_tE(i32 noundef %0, i32 noundef %1, i32 noundef %2, i32 noundef %3, i32 noundef %4, i32 noundef %5, i32 noundef %6, ptr noundef byval(%"struct.duckdb::interval_t") align 8 %7) #0 {
  %9 = alloca %"struct.duckdb::timestamp_t", align 8
  %10 = alloca i32, align 4
  %11 = alloca i32, align 4
  %12 = alloca i32, align 4
  %13 = alloca i32, align 4
  %14 = alloca i32, align 4
  %15 = alloca i32, align 4
  %16 = alloca i32, align 4
  %17 = alloca %"struct.duckdb::date_t", align 4
  %18 = alloca %"struct.duckdb::dtime_t", align 8
  store i32 %0, ptr %10, align 4, !tbaa !110
  store i32 %1, ptr %11, align 4, !tbaa !110
  store i32 %2, ptr %12, align 4, !tbaa !110
  store i32 %3, ptr %13, align 4, !tbaa !110
  store i32 %4, ptr %14, align 4, !tbaa !110
  store i32 %5, ptr %15, align 4, !tbaa !110
  store i32 %6, ptr %16, align 4, !tbaa !110
  %19 = getelementptr inbounds nuw %"struct.duckdb::interval_t", ptr %7, i32 0, i32 0
  %20 = load i32, ptr %19, align 8, !tbaa !111
  %21 = icmp sge i32 %20, 12
  br i1 %21, label %22, label %39

22:                                               ; preds = %8
  %23 = load i32, ptr %12, align 4, !tbaa !110
  %24 = icmp sgt i32 %23, 1
  br i1 %24, label %37, label %25

25:                                               ; preds = %22
  %26 = load i32, ptr %13, align 4, !tbaa !110
  %27 = icmp sgt i32 %26, 0
  br i1 %27, label %37, label %28

28:                                               ; preds = %25
  %29 = load i32, ptr %14, align 4, !tbaa !110
  %30 = icmp sgt i32 %29, 0
  br i1 %30, label %37, label %31

31:                                               ; preds = %28
  %32 = load i32, ptr %15, align 4, !tbaa !110
  %33 = icmp sgt i32 %32, 0
  br i1 %33, label %37, label %34

34:                                               ; preds = %31
  %35 = load i32, ptr %16, align 4, !tbaa !110
  %36 = icmp sgt i32 %35, 0
  br i1 %36, label %37, label %38

37:                                               ; preds = %34, %31, %28, %25, %22
  call void @_ZN6duckdb9NextMonthERiS0_(ptr noundef nonnull align 4 dereferenceable(4) %10, ptr noundef nonnull align 4 dereferenceable(4) %11)
  store i32 0, ptr %16, align 4, !tbaa !110
  store i32 0, ptr %15, align 4, !tbaa !110
  store i32 0, ptr %14, align 4, !tbaa !110
  store i32 0, ptr %13, align 4, !tbaa !110
  store i32 1, ptr %12, align 4, !tbaa !110
  br label %38

38:                                               ; preds = %37, %34
  br label %105

39:                                               ; preds = %8
  %40 = getelementptr inbounds nuw %"struct.duckdb::interval_t", ptr %7, i32 0, i32 0
  %41 = load i32, ptr %40, align 8, !tbaa !111
  %42 = icmp sgt i32 %41, 0
  br i1 %42, label %47, label %43

43:                                               ; preds = %39
  %44 = getelementptr inbounds nuw %"struct.duckdb::interval_t", ptr %7, i32 0, i32 1
  %45 = load i32, ptr %44, align 4, !tbaa !113
  %46 = icmp sge i32 %45, 1
  br i1 %46, label %47, label %61

47:                                               ; preds = %43, %39
  %48 = load i32, ptr %13, align 4, !tbaa !110
  %49 = icmp sgt i32 %48, 0
  br i1 %49, label %59, label %50

50:                                               ; preds = %47
  %51 = load i32, ptr %14, align 4, !tbaa !110
  %52 = icmp sgt i32 %51, 0
  br i1 %52, label %59, label %53

53:                                               ; preds = %50
  %54 = load i32, ptr %15, align 4, !tbaa !110
  %55 = icmp sgt i32 %54, 0
  br i1 %55, label %59, label %56

56:                                               ; preds = %53
  %57 = load i32, ptr %16, align 4, !tbaa !110
  %58 = icmp sgt i32 %57, 0
  br i1 %58, label %59, label %60

59:                                               ; preds = %56, %53, %50, %47
  call void @_ZN6duckdb7NextDayERiS0_S0_(ptr noundef nonnull align 4 dereferenceable(4) %10, ptr noundef nonnull align 4 dereferenceable(4) %11, ptr noundef nonnull align 4 dereferenceable(4) %12)
  store i32 0, ptr %16, align 4, !tbaa !110
  store i32 0, ptr %15, align 4, !tbaa !110
  store i32 0, ptr %14, align 4, !tbaa !110
  store i32 0, ptr %13, align 4, !tbaa !110
  br label %60

60:                                               ; preds = %59, %56
  br label %104

61:                                               ; preds = %43
  %62 = getelementptr inbounds nuw %"struct.duckdb::interval_t", ptr %7, i32 0, i32 1
  %63 = load i32, ptr %62, align 4, !tbaa !113
  %64 = icmp sgt i32 %63, 0
  br i1 %64, label %69, label %65

65:                                               ; preds = %61
  %66 = getelementptr inbounds nuw %"struct.duckdb::interval_t", ptr %7, i32 0, i32 2
  %67 = load i64, ptr %66, align 8, !tbaa !114
  %68 = icmp sge i64 %67, 3600000000
  br i1 %68, label %69, label %80

69:                                               ; preds = %65, %61
  %70 = load i32, ptr %14, align 4, !tbaa !110
  %71 = icmp sgt i32 %70, 0
  br i1 %71, label %78, label %72

72:                                               ; preds = %69
  %73 = load i32, ptr %15, align 4, !tbaa !110
  %74 = icmp sgt i32 %73, 0
  br i1 %74, label %78, label %75

75:                                               ; preds = %72
  %76 = load i32, ptr %16, align 4, !tbaa !110
  %77 = icmp sgt i32 %76, 0
  br i1 %77, label %78, label %79

78:                                               ; preds = %75, %72, %69
  call void @_ZN6duckdb8NextHourERiS0_S0_S0_(ptr noundef nonnull align 4 dereferenceable(4) %10, ptr noundef nonnull align 4 dereferenceable(4) %11, ptr noundef nonnull align 4 dereferenceable(4) %12, ptr noundef nonnull align 4 dereferenceable(4) %13)
  store i32 0, ptr %16, align 4, !tbaa !110
  store i32 0, ptr %15, align 4, !tbaa !110
  store i32 0, ptr %14, align 4, !tbaa !110
  br label %79

79:                                               ; preds = %78, %75
  br label %103

80:                                               ; preds = %65
  %81 = getelementptr inbounds nuw %"struct.duckdb::interval_t", ptr %7, i32 0, i32 2
  %82 = load i64, ptr %81, align 8, !tbaa !114
  %83 = icmp sge i64 %82, 60000000
  br i1 %83, label %84, label %92

84:                                               ; preds = %80
  %85 = load i32, ptr %15, align 4, !tbaa !110
  %86 = icmp sgt i32 %85, 0
  br i1 %86, label %90, label %87

87:                                               ; preds = %84
  %88 = load i32, ptr %16, align 4, !tbaa !110
  %89 = icmp sgt i32 %88, 0
  br i1 %89, label %90, label %91

90:                                               ; preds = %87, %84
  call void @_ZN6duckdb10NextMinuteERiS0_S0_S0_S0_(ptr noundef nonnull align 4 dereferenceable(4) %10, ptr noundef nonnull align 4 dereferenceable(4) %11, ptr noundef nonnull align 4 dereferenceable(4) %12, ptr noundef nonnull align 4 dereferenceable(4) %13, ptr noundef nonnull align 4 dereferenceable(4) %14)
  store i32 0, ptr %16, align 4, !tbaa !110
  store i32 0, ptr %15, align 4, !tbaa !110
  br label %91

91:                                               ; preds = %90, %87
  br label %102

92:                                               ; preds = %80
  %93 = getelementptr inbounds nuw %"struct.duckdb::interval_t", ptr %7, i32 0, i32 2
  %94 = load i64, ptr %93, align 8, !tbaa !114
  %95 = icmp sge i64 %94, 1000000
  br i1 %95, label %96, label %101

96:                                               ; preds = %92
  %97 = load i32, ptr %16, align 4, !tbaa !110
  %98 = icmp sgt i32 %97, 0
  br i1 %98, label %99, label %100

99:                                               ; preds = %96
  call void @_ZN6duckdb10NextSecondERiS0_S0_S0_S0_S0_(ptr noundef nonnull align 4 dereferenceable(4) %10, ptr noundef nonnull align 4 dereferenceable(4) %11, ptr noundef nonnull align 4 dereferenceable(4) %12, ptr noundef nonnull align 4 dereferenceable(4) %13, ptr noundef nonnull align 4 dereferenceable(4) %14, ptr noundef nonnull align 4 dereferenceable(4) %15)
  store i32 0, ptr %16, align 4, !tbaa !110
  br label %100

100:                                              ; preds = %99, %96
  br label %101

101:                                              ; preds = %100, %92
  br label %102

102:                                              ; preds = %101, %91
  br label %103

103:                                              ; preds = %102, %79
  br label %104

104:                                              ; preds = %103, %60
  br label %105

105:                                              ; preds = %104, %38
  %106 = load i32, ptr %10, align 4, !tbaa !110
  %107 = load i32, ptr %11, align 4, !tbaa !110
  %108 = load i32, ptr %12, align 4, !tbaa !110
  %109 = call i32 @_ZN6duckdb4Date8FromDateEiii(i32 noundef %106, i32 noundef %107, i32 noundef %108)
  %110 = getelementptr inbounds nuw %"struct.duckdb::date_t", ptr %17, i32 0, i32 0
  store i32 %109, ptr %110, align 4
  %111 = load i32, ptr %13, align 4, !tbaa !110
  %112 = load i32, ptr %14, align 4, !tbaa !110
  %113 = load i32, ptr %15, align 4, !tbaa !110
  %114 = load i32, ptr %16, align 4, !tbaa !110
  %115 = call i64 @_ZN6duckdb4Time8FromTimeEiiii(i32 noundef %111, i32 noundef %112, i32 noundef %113, i32 noundef %114)
  %116 = getelementptr inbounds nuw %"struct.duckdb::dtime_t", ptr %18, i32 0, i32 0
  store i64 %115, ptr %116, align 8
  %117 = getelementptr inbounds nuw %"struct.duckdb::date_t", ptr %17, i32 0, i32 0
  %118 = load i32, ptr %117, align 4
  %119 = getelementptr inbounds nuw %"struct.duckdb::dtime_t", ptr %18, i32 0, i32 0
  %120 = load i64, ptr %119, align 8
  %121 = call i64 @_ZN6duckdb9Timestamp12FromDatetimeENS_6date_tENS_7dtime_tE(i32 %118, i64 %120)
  %122 = getelementptr inbounds nuw %"struct.duckdb::timestamp_t", ptr %9, i32 0, i32 0
  store i64 %121, ptr %122, align 8
  %123 = getelementptr inbounds nuw %"struct.duckdb::timestamp_t", ptr %9, i32 0, i32 0
  %124 = load i64, ptr %123, align 8
  ret i64 %124
}