; Function Attrs: mustprogress uwtable
define i64 @_ZN6duckdb17MakeTimestampNiceEiiiiiiiNS_10interval_tE(i32 noundef %0, i32 noundef %1, i32 noundef %2, i32 noundef %3, i32 noundef %4, i32 noundef %5, i32 noundef %6, ptr noundef readonly byval(%"struct.duckdb::interval_t") align 8 captures(none) %7) local_unnamed_addr #0 {
  %9 = load i32, ptr %7, align 8, !tbaa !92
  %10 = icmp sgt i32 %9, 11
  br i1 %10, label %11, label %21

11:                                               ; preds = %8
  %12 = icmp sgt i32 %2, 1
  %13 = icmp sgt i32 %3, 0
  %or.cond = or i1 %12, %13
  %14 = icmp sgt i32 %4, 0
  %or.cond3 = or i1 %or.cond, %14
  %15 = icmp sgt i32 %5, 0
  %or.cond5 = or i1 %or.cond3, %15
  %16 = icmp sgt i32 %6, 0
  %or.cond7 = or i1 %or.cond5, %16
  br i1 %or.cond7, label %17, label %_ZN6duckdb9NextMonthERiS0_.exit

17:                                               ; preds = %11
  %18 = add nsw i32 %1, 1
  %19 = icmp eq i32 %18, 13
  %20 = zext i1 %19 to i32
  %spec.select = add nsw i32 %0, %20
  %spec.select118 = select i1 %19, i32 1, i32 %18
  br label %_ZN6duckdb9NextMonthERiS0_.exit

21:                                               ; preds = %8
  %22 = icmp sgt i32 %9, 0
  %23 = getelementptr inbounds nuw i8, ptr %7, i64 4
  %24 = load i32, ptr %23, align 4
  %25 = icmp sgt i32 %24, 0
  %or.cond10 = select i1 %22, i1 true, i1 %25
  br i1 %or.cond10, label %26, label %38

26:                                               ; preds = %21
  %27 = icmp sgt i32 %3, 0
  %28 = icmp sgt i32 %4, 0
  %or.cond12 = or i1 %27, %28
  %29 = icmp sgt i32 %5, 0
  %or.cond14 = or i1 %or.cond12, %29
  %30 = icmp sgt i32 %6, 0
  %or.cond16 = or i1 %or.cond14, %30
  br i1 %or.cond16, label %31, label %_ZN6duckdb9NextMonthERiS0_.exit

31:                                               ; preds = %26
  %32 = add nsw i32 %2, 1
  %33 = tail call noundef zeroext i1 @_ZN6duckdb4Date7IsValidEiii(i32 noundef %0, i32 noundef %1, i32 noundef %32)
  br i1 %33, label %_ZN6duckdb9NextMonthERiS0_.exit, label %34

34:                                               ; preds = %31
  %35 = add nsw i32 %1, 1
  %36 = icmp eq i32 %35, 13
  %37 = zext i1 %36 to i32
  %spec.select119 = add nsw i32 %0, %37
  %spec.select120 = select i1 %36, i32 1, i32 %35
  br label %_ZN6duckdb9NextMonthERiS0_.exit

38:                                               ; preds = %21
  %39 = getelementptr inbounds nuw i8, ptr %7, i64 8
  %40 = load i64, ptr %39, align 8
  %41 = icmp sgt i64 %40, 3599999999
  br i1 %41, label %42, label %56

42:                                               ; preds = %38
  %43 = icmp sgt i32 %4, 0
  %44 = icmp sgt i32 %5, 0
  %or.cond21 = or i1 %43, %44
  %45 = icmp sgt i32 %6, 0
  %or.cond23 = or i1 %or.cond21, %45
  br i1 %or.cond23, label %46, label %_ZN6duckdb9NextMonthERiS0_.exit

46:                                               ; preds = %42
  %47 = add nsw i32 %3, 1
  %48 = icmp sgt i32 %3, 22
  br i1 %48, label %49, label %_ZN6duckdb9NextMonthERiS0_.exit

49:                                               ; preds = %46
  %50 = add nsw i32 %2, 1
  %51 = tail call noundef zeroext i1 @_ZN6duckdb4Date7IsValidEiii(i32 noundef %0, i32 noundef %1, i32 noundef %50)
  br i1 %51, label %_ZN6duckdb9NextMonthERiS0_.exit, label %52

52:                                               ; preds = %49
  %53 = add nsw i32 %1, 1
  %54 = icmp eq i32 %53, 13
  %55 = zext i1 %54 to i32
  %spec.select121 = add nsw i32 %0, %55
  %spec.select122 = select i1 %54, i32 1, i32 %53
  br label %_ZN6duckdb9NextMonthERiS0_.exit

56:                                               ; preds = %38
  %57 = icmp sgt i64 %40, 59999999
  %58 = icmp sgt i32 %6, 0
  br i1 %57, label %59, label %74

59:                                               ; preds = %56
  %60 = icmp sgt i32 %5, 0
  %or.cond25 = or i1 %60, %58
  br i1 %or.cond25, label %61, label %_ZN6duckdb9NextMonthERiS0_.exit

61:                                               ; preds = %59
  %62 = add nsw i32 %4, 1
  %63 = icmp sgt i32 %4, 58
  br i1 %63, label %64, label %_ZN6duckdb9NextMonthERiS0_.exit

64:                                               ; preds = %61
  %65 = add nsw i32 %3, 1
  %66 = icmp sgt i32 %3, 22
  br i1 %66, label %67, label %_ZN6duckdb9NextMonthERiS0_.exit

67:                                               ; preds = %64
  %68 = add nsw i32 %2, 1
  %69 = tail call noundef zeroext i1 @_ZN6duckdb4Date7IsValidEiii(i32 noundef %0, i32 noundef %1, i32 noundef %68)
  br i1 %69, label %_ZN6duckdb9NextMonthERiS0_.exit, label %70

70:                                               ; preds = %67
  %71 = add nsw i32 %1, 1
  %72 = icmp eq i32 %71, 13
  %73 = zext i1 %72 to i32
  %spec.select123 = add nsw i32 %0, %73
  %spec.select124 = select i1 %72, i32 1, i32 %71
  br label %_ZN6duckdb9NextMonthERiS0_.exit

74:                                               ; preds = %56
  %75 = icmp sgt i64 %40, 999999
  %or.cond27 = and i1 %58, %75
  br i1 %or.cond27, label %76, label %_ZN6duckdb9NextMonthERiS0_.exit

76:                                               ; preds = %74
  %77 = add nsw i32 %5, 1
  %78 = icmp sgt i32 %5, 58
  br i1 %78, label %79, label %_ZN6duckdb9NextMonthERiS0_.exit

79:                                               ; preds = %76
  %80 = add nsw i32 %4, 1
  %81 = icmp sgt i32 %4, 58
  br i1 %81, label %82, label %_ZN6duckdb9NextMonthERiS0_.exit

82:                                               ; preds = %79
  %83 = add nsw i32 %3, 1
  %84 = icmp sgt i32 %3, 22
  br i1 %84, label %85, label %_ZN6duckdb9NextMonthERiS0_.exit

85:                                               ; preds = %82
  %86 = add nsw i32 %2, 1
  %87 = tail call noundef zeroext i1 @_ZN6duckdb4Date7IsValidEiii(i32 noundef %0, i32 noundef %1, i32 noundef %86)
  br i1 %87, label %_ZN6duckdb9NextMonthERiS0_.exit, label %88

88:                                               ; preds = %85
  %89 = add nsw i32 %1, 1
  %90 = icmp eq i32 %89, 13
  %91 = zext i1 %90 to i32
  %spec.select125 = add nsw i32 %0, %91
  %spec.select126 = select i1 %90, i32 1, i32 %89
  br label %_ZN6duckdb9NextMonthERiS0_.exit

_ZN6duckdb9NextMonthERiS0_.exit:                  ; preds = %88, %70, %52, %34, %17, %76, %82, %85, %79, %61, %67, %64, %46, %49, %31, %26, %59, %74, %42, %11
  %.0102 = phi i32 [ %0, %11 ], [ %0, %26 ], [ %0, %42 ], [ %0, %59 ], [ %0, %74 ], [ %0, %31 ], [ %0, %46 ], [ %0, %49 ], [ %0, %61 ], [ %0, %64 ], [ %0, %67 ], [ %0, %76 ], [ %0, %79 ], [ %0, %82 ], [ %0, %85 ], [ %spec.select, %17 ], [ %spec.select119, %34 ], [ %spec.select121, %52 ], [ %spec.select123, %70 ], [ %spec.select125, %88 ]
  %.091 = phi i32 [ %1, %11 ], [ %1, %26 ], [ %1, %42 ], [ %1, %59 ], [ %1, %74 ], [ %1, %31 ], [ %1, %46 ], [ %1, %49 ], [ %1, %61 ], [ %1, %64 ], [ %1, %67 ], [ %1, %76 ], [ %1, %79 ], [ %1, %82 ], [ %1, %85 ], [ %spec.select118, %17 ], [ %spec.select120, %34 ], [ %spec.select122, %52 ], [ %spec.select124, %70 ], [ %spec.select126, %88 ]
  %.084 = phi i32 [ %2, %11 ], [ %2, %26 ], [ %2, %42 ], [ %2, %59 ], [ %2, %74 ], [ %32, %31 ], [ %2, %46 ], [ %50, %49 ], [ %2, %61 ], [ %2, %64 ], [ %68, %67 ], [ %2, %76 ], [ %2, %79 ], [ %2, %82 ], [ %86, %85 ], [ 1, %17 ], [ 1, %34 ], [ 1, %52 ], [ 1, %70 ], [ 1, %88 ]
  %.080 = phi i32 [ %3, %11 ], [ %3, %26 ], [ %3, %42 ], [ %3, %59 ], [ %3, %74 ], [ 0, %31 ], [ %47, %46 ], [ 0, %49 ], [ %3, %61 ], [ %65, %64 ], [ 0, %67 ], [ %3, %76 ], [ %3, %79 ], [ %83, %82 ], [ 0, %85 ], [ 0, %17 ], [ 0, %34 ], [ 0, %52 ], [ 0, %70 ], [ 0, %88 ]
  %.078 = phi i32 [ %4, %11 ], [ %4, %26 ], [ %4, %42 ], [ %4, %59 ], [ %4, %74 ], [ 0, %31 ], [ 0, %46 ], [ 0, %49 ], [ %62, %61 ], [ 0, %64 ], [ 0, %67 ], [ %4, %76 ], [ %80, %79 ], [ 0, %82 ], [ 0, %85 ], [ 0, %17 ], [ 0, %34 ], [ 0, %52 ], [ 0, %70 ], [ 0, %88 ]
  %.077 = phi i32 [ %5, %11 ], [ %5, %26 ], [ %5, %42 ], [ %5, %59 ], [ %5, %74 ], [ 0, %31 ], [ 0, %46 ], [ 0, %49 ], [ 0, %61 ], [ 0, %64 ], [ 0, %67 ], [ %77, %76 ], [ 0, %79 ], [ 0, %82 ], [ 0, %85 ], [ 0, %17 ], [ 0, %34 ], [ 0, %52 ], [ 0, %70 ], [ 0, %88 ]
  %.0 = phi i32 [ %6, %11 ], [ %6, %26 ], [ %6, %42 ], [ %6, %59 ], [ %6, %74 ], [ 0, %31 ], [ 0, %46 ], [ 0, %49 ], [ 0, %61 ], [ 0, %64 ], [ 0, %67 ], [ 0, %76 ], [ 0, %79 ], [ 0, %82 ], [ 0, %85 ], [ 0, %17 ], [ 0, %34 ], [ 0, %52 ], [ 0, %70 ], [ 0, %88 ]
  %92 = tail call i32 @_ZN6duckdb4Date8FromDateEiii(i32 noundef %.0102, i32 noundef %.091, i32 noundef %.084)
  %93 = tail call i64 @_ZN6duckdb4Time8FromTimeEiiii(i32 noundef %.080, i32 noundef %.078, i32 noundef %.077, i32 noundef %.0)
  %94 = tail call i64 @_ZN6duckdb9Timestamp12FromDatetimeENS_6date_tENS_7dtime_tE(i32 %92, i64 %93)
  ret i64 %94
}